; ModuleID = '9/1341.c'
source_filename = "9/1341.c"
target datalayout = "e-m:e-p270:32:32-p271:32:32-p272:64:64-i64:64-f80:128-n8:16:32:64-S128"
target triple = "x86_64-pc-linux-gnu"

%struct.patient = type { [20 x i8], i32 }

@.str = private unnamed_addr constant [3 x i8] c"%d\00", align 1
@.str.1 = private unnamed_addr constant [5 x i8] c"%s%d\00", align 1
@pat = common dso_local global [100 x %struct.patient] zeroinitializer, align 16
@.str.2 = private unnamed_addr constant [4 x i8] c"%s\0A\00", align 1

; Function Attrs: noinline nounwind uwtable
define dso_local i32 @main() #0 {
  %1 = alloca i32, align 4
  %2 = alloca i32, align 4
  %3 = alloca i32, align 4
  %4 = alloca i32, align 4
  %5 = alloca i32, align 4
  %6 = alloca [100 x i32], align 16
  %7 = alloca [100 x i32], align 16
  store i32 0, i32* %1, align 4
  store i32 0, i32* %2, align 4
  store i32 0, i32* %3, align 4
  %8 = call i32 (i8*, ...) @__isoc99_scanf(i8* getelementptr inbounds ([3 x i8], [3 x i8]* @.str, i64 0, i64 0), i32* %4)
  store i32 0, i32* %2, align 4
  br label %9

9:                                                ; preds = %37, %0
  %10 = load i32, i32* %2, align 4
  %11 = load i32, i32* %4, align 4
  %12 = sub nsw i32 %11, 1
  %13 = icmp sle i32 %10, %12
  br i1 %13, label %14, label %40

14:                                               ; preds = %9
  %15 = load i32, i32* %2, align 4
  %16 = sext i32 %15 to i64
  %17 = getelementptr inbounds [100 x %struct.patient], [100 x %struct.patient]* @pat, i64 0, i64 %16
  %18 = getelementptr inbounds %struct.patient, %struct.patient* %17, i32 0, i32 0
  %19 = load i32, i32* %2, align 4
  %20 = sext i32 %19 to i64
  %21 = getelementptr inbounds [100 x %struct.patient], [100 x %struct.patient]* @pat, i64 0, i64 %20
  %22 = getelementptr inbounds %struct.patient, %struct.patient* %21, i32 0, i32 1
  %23 = call i32 (i8*, ...) @__isoc99_scanf(i8* getelementptr inbounds ([5 x i8], [5 x i8]* @.str.1, i64 0, i64 0), [20 x i8]* %18, i32* %22)
  %24 = load i32, i32* %2, align 4
  %25 = sext i32 %24 to i64
  %26 = getelementptr inbounds [100 x %struct.patient], [100 x %struct.patient]* @pat, i64 0, i64 %25
  %27 = getelementptr inbounds %struct.patient, %struct.patient* %26, i32 0, i32 1
  %28 = load i32, i32* %27, align 4
  %29 = load i32, i32* %2, align 4
  %30 = sext i32 %29 to i64
  %31 = getelementptr inbounds [100 x i32], [100 x i32]* %6, i64 0, i64 %30
  store i32 %28, i32* %31, align 4
  %32 = load i32, i32* %2, align 4
  %33 = add nsw i32 %32, 1
  %34 = load i32, i32* %2, align 4
  %35 = sext i32 %34 to i64
  %36 = getelementptr inbounds [100 x i32], [100 x i32]* %7, i64 0, i64 %35
  store i32 %33, i32* %36, align 4
  br label %37

37:                                               ; preds = %14
  %38 = load i32, i32* %2, align 4
  %39 = add nsw i32 %38, 1
  store i32 %39, i32* %2, align 4
  br label %9

40:                                               ; preds = %9
  %41 = load i32, i32* %4, align 4
  %42 = sub nsw i32 %41, 1
  store i32 %42, i32* %3, align 4
  br label %43

43:                                               ; preds = %112, %40
  %44 = load i32, i32* %3, align 4
  %45 = icmp sge i32 %44, 1
  br i1 %45, label %46, label %115

46:                                               ; preds = %43
  %47 = load i32, i32* %4, align 4
  %48 = sub nsw i32 %47, 1
  store i32 %48, i32* %2, align 4
  br label %49

49:                                               ; preds = %108, %46
  %50 = load i32, i32* %2, align 4
  %51 = load i32, i32* %4, align 4
  %52 = load i32, i32* %3, align 4
  %53 = sub nsw i32 %51, %52
  %54 = icmp sge i32 %50, %53
  br i1 %54, label %55, label %111

55:                                               ; preds = %49
  %56 = load i32, i32* %2, align 4
  %57 = sext i32 %56 to i64
  %58 = getelementptr inbounds [100 x i32], [100 x i32]* %6, i64 0, i64 %57
  %59 = load i32, i32* %58, align 4
  %60 = load i32, i32* %2, align 4
  %61 = sub nsw i32 %60, 1
  %62 = sext i32 %61 to i64
  %63 = getelementptr inbounds [100 x i32], [100 x i32]* %6, i64 0, i64 %62
  %64 = load i32, i32* %63, align 4
  %65 = icmp sgt i32 %59, %64
  br i1 %65, label %66, label %107

66:                                               ; preds = %55
  %67 = load i32, i32* %2, align 4
  %68 = sext i32 %67 to i64
  %69 = getelementptr inbounds [100 x i32], [100 x i32]* %6, i64 0, i64 %68
  %70 = load i32, i32* %69, align 4
  %71 = icmp sge i32 %70, 60
  br i1 %71, label %72, label %107

72:                                               ; preds = %66
  %73 = load i32, i32* %2, align 4
  %74 = sext i32 %73 to i64
  %75 = getelementptr inbounds [100 x i32], [100 x i32]* %6, i64 0, i64 %74
  %76 = load i32, i32* %75, align 4
  store i32 %76, i32* %5, align 4
  %77 = load i32, i32* %2, align 4
  %78 = sub nsw i32 %77, 1
  %79 = sext i32 %78 to i64
  %80 = getelementptr inbounds [100 x i32], [100 x i32]* %6, i64 0, i64 %79
  %81 = load i32, i32* %80, align 4
  %82 = load i32, i32* %2, align 4
  %83 = sext i32 %82 to i64
  %84 = getelementptr inbounds [100 x i32], [100 x i32]* %6, i64 0, i64 %83
  store i32 %81, i32* %84, align 4
  %85 = load i32, i32* %5, align 4
  %86 = load i32, i32* %2, align 4
  %87 = sub nsw i32 %86, 1
  %88 = sext i32 %87 to i64
  %89 = getelementptr inbounds [100 x i32], [100 x i32]* %6, i64 0, i64 %88
  store i32 %85, i32* %89, align 4
  %90 = load i32, i32* %2, align 4
  %91 = sext i32 %90 to i64
  %92 = getelementptr inbounds [100 x i32], [100 x i32]* %7, i64 0, i64 %91
  %93 = load i32, i32* %92, align 4
  store i32 %93, i32* %5, align 4
  %94 = load i32, i32* %2, align 4
  %95 = sub nsw i32 %94, 1
  %96 = sext i32 %95 to i64
  %97 = getelementptr inbounds [100 x i32], [100 x i32]* %7, i64 0, i64 %96
  %98 = load i32, i32* %97, align 4
  %99 = load i32, i32* %2, align 4
  %100 = sext i32 %99 to i64
  %101 = getelementptr inbounds [100 x i32], [100 x i32]* %7, i64 0, i64 %100
  store i32 %98, i32* %101, align 4
  %102 = load i32, i32* %5, align 4
  %103 = load i32, i32* %2, align 4
  %104 = sub nsw i32 %103, 1
  %105 = sext i32 %104 to i64
  %106 = getelementptr inbounds [100 x i32], [100 x i32]* %7, i64 0, i64 %105
  store i32 %102, i32* %106, align 4
  br label %107

107:                                              ; preds = %72, %66, %55
  br label %108

108:                                              ; preds = %107
  %109 = load i32, i32* %2, align 4
  %110 = add nsw i32 %109, -1
  store i32 %110, i32* %2, align 4
  br label %49

111:                                              ; preds = %49
  br label %112

112:                                              ; preds = %111
  %113 = load i32, i32* %3, align 4
  %114 = add nsw i32 %113, -1
  store i32 %114, i32* %3, align 4
  br label %43

115:                                              ; preds = %43
  store i32 0, i32* %2, align 4
  br label %116

116:                                              ; preds = %139, %115
  %117 = load i32, i32* %2, align 4
  %118 = load i32, i32* %4, align 4
  %119 = sub nsw i32 %118, 1
  %120 = icmp sle i32 %117, %119
  br i1 %120, label %121, label %142

121:                                              ; preds = %116
  %122 = load i32, i32* %2, align 4
  %123 = sext i32 %122 to i64
  %124 = getelementptr inbounds [100 x i32], [100 x i32]* %6, i64 0, i64 %123
  %125 = load i32, i32* %124, align 4
  %126 = icmp sge i32 %125, 60
  br i1 %126, label %127, label %138

127:                                              ; preds = %121
  %128 = load i32, i32* %2, align 4
  %129 = sext i32 %128 to i64
  %130 = getelementptr inbounds [100 x i32], [100 x i32]* %7, i64 0, i64 %129
  %131 = load i32, i32* %130, align 4
  %132 = sub nsw i32 %131, 1
  %133 = sext i32 %132 to i64
  %134 = getelementptr inbounds [100 x %struct.patient], [100 x %struct.patient]* @pat, i64 0, i64 %133
  %135 = getelementptr inbounds %struct.patient, %struct.patient* %134, i32 0, i32 0
  %136 = getelementptr inbounds [20 x i8], [20 x i8]* %135, i64 0, i64 0
  %137 = call i32 (i8*, ...) @printf(i8* getelementptr inbounds ([4 x i8], [4 x i8]* @.str.2, i64 0, i64 0), i8* %136)
  br label %138

138:                                              ; preds = %127, %121
  br label %139

139:                                              ; preds = %138
  %140 = load i32, i32* %2, align 4
  %141 = add nsw i32 %140, 1
  store i32 %141, i32* %2, align 4
  br label %116

142:                                              ; preds = %116
  store i32 0, i32* %2, align 4
  br label %143

143:                                              ; preds = %166, %142
  %144 = load i32, i32* %2, align 4
  %145 = load i32, i32* %4, align 4
  %146 = sub nsw i32 %145, 1
  %147 = icmp sle i32 %144, %146
  br i1 %147, label %148, label %169

148:                                              ; preds = %143
  %149 = load i32, i32* %2, align 4
  %150 = sext i32 %149 to i64
  %151 = getelementptr inbounds [100 x i32], [100 x i32]* %6, i64 0, i64 %150
  %152 = load i32, i32* %151, align 4
  %153 = icmp slt i32 %152, 60
  br i1 %153, label %154, label %165

154:                                              ; preds = %148
  %155 = load i32, i32* %2, align 4
  %156 = sext i32 %155 to i64
  %157 = getelementptr inbounds [100 x i32], [100 x i32]* %7, i64 0, i64 %156
  %158 = load i32, i32* %157, align 4
  %159 = sub nsw i32 %158, 1
  %160 = sext i32 %159 to i64
  %161 = getelementptr inbounds [100 x %struct.patient], [100 x %struct.patient]* @pat, i64 0, i64 %160
  %162 = getelementptr inbounds %struct.patient, %struct.patient* %161, i32 0, i32 0
  %163 = getelementptr inbounds [20 x i8], [20 x i8]* %162, i64 0, i64 0
  %164 = call i32 (i8*, ...) @printf(i8* getelementptr inbounds ([4 x i8], [4 x i8]* @.str.2, i64 0, i64 0), i8* %163)
  br label %165

165:                                              ; preds = %154, %148
  br label %166

166:                                              ; preds = %165
  %167 = load i32, i32* %2, align 4
  %168 = add nsw i32 %167, 1
  store i32 %168, i32* %2, align 4
  br label %143

169:                                              ; preds = %143
  ret i32 0
}

declare dso_local i32 @__isoc99_scanf(i8*, ...) #1

declare dso_local i32 @printf(i8*, ...) #1


!llvm.module.flags = !{!0}
!llvm.ident = !{!1}

!0 = !{i32 1, !"wchar_size", i32 4}
!1 = !{!"clang version 10.0.0-4ubuntu1 "}
