; ModuleID = 'source-C-CXX/8/1341.c'
source_filename = "source-C-CXX/8/1341.c"
target datalayout = "e-m:e-p270:32:32-p271:32:32-p272:64:64-i64:64-f80:128-n8:16:32:64-S128"
target triple = "x86_64-pc-linux-gnu"

%struct.patient = type { [20 x i8], i32 }

@.str = private unnamed_addr constant [3 x i8] c"%d\00", align 1
@.str.1 = private unnamed_addr constant [5 x i8] c"%s%d\00", align 1
@pat = dso_local global [100 x %struct.patient] zeroinitializer, align 16

; Function Attrs: nofree nounwind sspstrong uwtable
define dso_local i32 @main() local_unnamed_addr #0 {
  %1 = alloca i32, align 4
  %2 = alloca [100 x i32], align 16
  %3 = alloca [100 x i32], align 16
  %4 = bitcast i32* %1 to i8*
  call void @llvm.lifetime.start.p0i8(i64 4, i8* nonnull %4) #4
  %5 = bitcast [100 x i32]* %2 to i8*
  call void @llvm.lifetime.start.p0i8(i64 400, i8* nonnull %5) #4
  %6 = bitcast [100 x i32]* %3 to i8*
  call void @llvm.lifetime.start.p0i8(i64 400, i8* nonnull %6) #4
  %7 = call i32 (i8*, ...) @__isoc99_scanf(i8* getelementptr inbounds ([3 x i8], [3 x i8]* @.str, i64 0, i64 0), i32* nonnull %1)
  %8 = load i32, i32* %1, align 4, !tbaa !5
  %9 = icmp sgt i32 %8, 0
  br i1 %9, label %14, label %93

10:                                               ; preds = %14
  %11 = icmp sgt i32 %24, 1
  br i1 %11, label %12, label %33

12:                                               ; preds = %10
  %13 = zext i32 %24 to i64
  br label %29

14:                                               ; preds = %0, %14
  %15 = phi i64 [ %21, %14 ], [ 0, %0 ]
  %16 = getelementptr inbounds [100 x %struct.patient], [100 x %struct.patient]* @pat, i64 0, i64 %15, i32 0
  %17 = getelementptr inbounds [100 x %struct.patient], [100 x %struct.patient]* @pat, i64 0, i64 %15, i32 1
  %18 = call i32 (i8*, ...) @__isoc99_scanf(i8* getelementptr inbounds ([5 x i8], [5 x i8]* @.str.1, i64 0, i64 0), [20 x i8]* nonnull %16, i32* nonnull %17)
  %19 = load i32, i32* %17, align 4, !tbaa !9
  %20 = getelementptr inbounds [100 x i32], [100 x i32]* %2, i64 0, i64 %15
  store i32 %19, i32* %20, align 4, !tbaa !5
  %21 = add nuw nsw i64 %15, 1
  %22 = getelementptr inbounds [100 x i32], [100 x i32]* %3, i64 0, i64 %15
  %23 = trunc i64 %21 to i32
  store i32 %23, i32* %22, align 4, !tbaa !5
  %24 = load i32, i32* %1, align 4, !tbaa !5
  %25 = sext i32 %24 to i64
  %26 = icmp slt i64 %21, %25
  br i1 %26, label %14, label %10, !llvm.loop !11

27:                                               ; preds = %51
  %28 = icmp sgt i64 %30, 2
  br i1 %28, label %29, label %33, !llvm.loop !13

29:                                               ; preds = %27, %12
  %30 = phi i64 [ %13, %12 ], [ %31, %27 ]
  %31 = add nsw i64 %30, -1
  %32 = sub nsw i64 %13, %31
  br label %35

33:                                               ; preds = %27, %10
  %34 = icmp sgt i32 %24, 0
  br i1 %34, label %55, label %93

35:                                               ; preds = %29, %51
  %36 = phi i64 [ %13, %29 ], [ %37, %51 ]
  %37 = add nsw i64 %36, -1
  %38 = getelementptr inbounds [100 x i32], [100 x i32]* %2, i64 0, i64 %37
  %39 = load i32, i32* %38, align 4, !tbaa !5
  %40 = add nsw i64 %36, -2
  %41 = getelementptr inbounds [100 x i32], [100 x i32]* %2, i64 0, i64 %40
  %42 = load i32, i32* %41, align 4, !tbaa !5
  %43 = icmp sgt i32 %39, %42
  %44 = icmp sgt i32 %39, 59
  %45 = and i1 %44, %43
  br i1 %45, label %46, label %51

46:                                               ; preds = %35
  store i32 %42, i32* %38, align 4, !tbaa !5
  store i32 %39, i32* %41, align 4, !tbaa !5
  %47 = getelementptr inbounds [100 x i32], [100 x i32]* %3, i64 0, i64 %37
  %48 = load i32, i32* %47, align 4, !tbaa !5
  %49 = getelementptr inbounds [100 x i32], [100 x i32]* %3, i64 0, i64 %40
  %50 = load i32, i32* %49, align 4, !tbaa !5
  store i32 %50, i32* %47, align 4, !tbaa !5
  store i32 %48, i32* %49, align 4, !tbaa !5
  br label %51

51:                                               ; preds = %35, %46
  %52 = icmp sgt i64 %37, %32
  br i1 %52, label %35, label %27, !llvm.loop !14

53:                                               ; preds = %69
  %54 = icmp sgt i32 %70, 0
  br i1 %54, label %74, label %93

55:                                               ; preds = %33, %69
  %56 = phi i32 [ %70, %69 ], [ %24, %33 ]
  %57 = phi i64 [ %71, %69 ], [ 0, %33 ]
  %58 = getelementptr inbounds [100 x i32], [100 x i32]* %2, i64 0, i64 %57
  %59 = load i32, i32* %58, align 4, !tbaa !5
  %60 = icmp sgt i32 %59, 59
  br i1 %60, label %61, label %69

61:                                               ; preds = %55
  %62 = getelementptr inbounds [100 x i32], [100 x i32]* %3, i64 0, i64 %57
  %63 = load i32, i32* %62, align 4, !tbaa !5
  %64 = add nsw i32 %63, -1
  %65 = sext i32 %64 to i64
  %66 = getelementptr inbounds [100 x %struct.patient], [100 x %struct.patient]* @pat, i64 0, i64 %65, i32 0, i64 0
  %67 = call i32 @puts(i8* nonnull %66)
  %68 = load i32, i32* %1, align 4, !tbaa !5
  br label %69

69:                                               ; preds = %55, %61
  %70 = phi i32 [ %56, %55 ], [ %68, %61 ]
  %71 = add nuw nsw i64 %57, 1
  %72 = sext i32 %70 to i64
  %73 = icmp slt i64 %71, %72
  br i1 %73, label %55, label %53, !llvm.loop !15

74:                                               ; preds = %53, %88
  %75 = phi i32 [ %89, %88 ], [ %70, %53 ]
  %76 = phi i64 [ %90, %88 ], [ 0, %53 ]
  %77 = getelementptr inbounds [100 x i32], [100 x i32]* %2, i64 0, i64 %76
  %78 = load i32, i32* %77, align 4, !tbaa !5
  %79 = icmp slt i32 %78, 60
  br i1 %79, label %80, label %88

80:                                               ; preds = %74
  %81 = getelementptr inbounds [100 x i32], [100 x i32]* %3, i64 0, i64 %76
  %82 = load i32, i32* %81, align 4, !tbaa !5
  %83 = add nsw i32 %82, -1
  %84 = sext i32 %83 to i64
  %85 = getelementptr inbounds [100 x %struct.patient], [100 x %struct.patient]* @pat, i64 0, i64 %84, i32 0, i64 0
  %86 = call i32 @puts(i8* nonnull %85)
  %87 = load i32, i32* %1, align 4, !tbaa !5
  br label %88

88:                                               ; preds = %74, %80
  %89 = phi i32 [ %75, %74 ], [ %87, %80 ]
  %90 = add nuw nsw i64 %76, 1
  %91 = sext i32 %89 to i64
  %92 = icmp slt i64 %90, %91
  br i1 %92, label %74, label %93, !llvm.loop !16

93:                                               ; preds = %88, %0, %33, %53
  call void @llvm.lifetime.end.p0i8(i64 400, i8* nonnull %6) #4
  call void @llvm.lifetime.end.p0i8(i64 400, i8* nonnull %5) #4
  call void @llvm.lifetime.end.p0i8(i64 4, i8* nonnull %4) #4
  ret i32 0
}

; Function Attrs: argmemonly mustprogress nofree nosync nounwind willreturn
declare void @llvm.lifetime.start.p0i8(i64 immarg, i8* nocapture) #1

; Function Attrs: nofree nounwind
declare noundef i32 @__isoc99_scanf(i8* nocapture noundef readonly, ...) local_unnamed_addr #2

; Function Attrs: argmemonly mustprogress nofree nosync nounwind willreturn
declare void @llvm.lifetime.end.p0i8(i64 immarg, i8* nocapture) #1

; Function Attrs: nofree nounwind
declare noundef i32 @puts(i8* nocapture noundef readonly) local_unnamed_addr #3


!llvm.module.flags = !{!0, !1, !2, !3}
!llvm.ident = !{!4}

!0 = !{i32 1, !"wchar_size", i32 4}
!1 = !{i32 7, !"PIC Level", i32 2}
!2 = !{i32 7, !"PIE Level", i32 2}
!3 = !{i32 7, !"uwtable", i32 1}
!4 = !{!"clang version 13.0.0"}
!5 = !{!6, !6, i64 0}
!6 = !{!"int", !7, i64 0}
!7 = !{!"omnipotent char", !8, i64 0}
!8 = !{!"Simple C/C++ TBAA"}
!9 = !{!10, !6, i64 20}
!10 = !{!"patient", !7, i64 0, !6, i64 20}
!11 = distinct !{!11, !12}
!12 = !{!"llvm.loop.mustprogress"}
!13 = distinct !{!13, !12}
!14 = distinct !{!14, !12}
!15 = distinct !{!15, !12}
!16 = distinct !{!16, !12}
